target datalayout = "e-m:e-p270:32:32-p271:32:32-p272:64:64-i64:64-i128:128-f80:128-n8:16:32:64-S128"
target triple = "x86_64-pc-linux-gnu"

; Function Attrs: inlinehint nounwind sspstrong willreturn memory(none) uwtable
define internal zeroext i1 @RB_NIL_P(i64 noundef %0) #5 {
  %2 = alloca i64, align 8
  store i64 %0, ptr %2, align 8, !tbaa !6
  %3 = load i64, ptr %2, align 8, !tbaa !6
  %4 = icmp eq i64 %3, 4
  ret i1 %4
}

; Function Attrs: nounwind sspstrong uwtable
define internal i64 @rb_gzreader_readlines(i32 noundef %0, ptr noundef %1, i64 noundef %2) #0 {
  %4 = alloca i32, align 4
  %5 = alloca ptr, align 8
  %6 = alloca i64, align 8
  %7 = alloca i64, align 8
  %8 = alloca i64, align 8
  store i32 %0, ptr %4, align 4, !tbaa !10
  store ptr %1, ptr %5, align 8, !tbaa !12
  store i64 %2, ptr %6, align 8, !tbaa !6
  call void @llvm.lifetime.start.p0(i64 8, ptr %7) #23
  call void @llvm.lifetime.start.p0(i64 8, ptr %8) #23
  %9 = call i64 @rb_ary_new()
  store i64 %9, ptr %8, align 8, !tbaa !6
  br label %10

10:                                               ; preds = %17, %3
  %11 = load i32, ptr %4, align 4, !tbaa !10
  %12 = load ptr, ptr %5, align 8, !tbaa !12
  %13 = load i64, ptr %6, align 8, !tbaa !6
  %14 = call i64 @gzreader_gets(i32 noundef %11, ptr noundef %12, i64 noundef %13)
  store i64 %14, ptr %7, align 8, !tbaa !6
  %15 = call zeroext i1 @RB_NIL_P(i64 noundef %14) #24
  %16 = xor i1 %15, true
  br i1 %16, label %17, label %21

17:                                               ; preds = %10
  %18 = load i64, ptr %8, align 8, !tbaa !6
  %19 = load i64, ptr %7, align 8, !tbaa !6
  %20 = call i64 @rb_ary_push(i64 noundef %18, i64 noundef %19)
  br label %10, !llvm.loop !74

21:                                               ; preds = %10
  %22 = load i64, ptr %8, align 8, !tbaa !6
  call void @llvm.lifetime.end.p0(i64 8, ptr %8) #23
  call void @llvm.lifetime.end.p0(i64 8, ptr %7) #23
  ret i64 %22
}