; Function Attrs: nounwind sspstrong uwtable
define internal i64 @rb_gzreader_readlines(i32 noundef %0, ptr noundef readonly captures(none) %1, i64 noundef %2) #0 {
  %4 = tail call i64 @rb_ary_new() #18
  %5 = tail call fastcc i64 @gzreader_gets(i32 noundef %0, ptr noundef %1, i64 noundef %2)
  %6 = icmp eq i64 %5, 4
  br i1 %6, label %._crit_edge, label %.lr.ph

.lr.ph:                                           ; preds = %3, %.lr.ph
  %7 = phi i64 [ %9, %.lr.ph ], [ %5, %3 ]
  %8 = tail call i64 @rb_ary_push(i64 noundef %4, i64 noundef %7) #18
  %9 = tail call fastcc i64 @gzreader_gets(i32 noundef %0, ptr noundef %1, i64 noundef %2)
  %10 = icmp eq i64 %9, 4
  br i1 %10, label %._crit_edge, label %.lr.ph, !llvm.loop !194

._crit_edge:                                      ; preds = %.lr.ph, %3
  ret i64 %4
}